; Function Attrs: null_pointer_is_valid sspstrong uwtable
define hidden noundef zeroext i1 @cf_add_ip_name_from_string(ptr noundef writeonly captures(none) %0, ptr noundef %1, ptr noundef %2) local_unnamed_addr #1 {
  %4 = tail call zeroext i1 @add_ip_name_from_string(ptr noundef %1, ptr noundef %2)
  br i1 %4, label %5, label %7

5:                                                ; preds = %3
  %6 = getelementptr inbounds nuw i8, ptr %0, i64 33
  store i8 1, ptr %6, align 1
  br label %7

7:                                                ; preds = %3, %5
  ret i1 %4
}